target datalayout = "e-m:e-p270:32:32-p271:32:32-p272:64:64-i64:64-i128:128-f80:128-n8:16:32:64-S128"
target triple = "x86_64-pc-linux-gnu"

%struct.evp_rand_ctx_st = type { ptr, ptr, ptr, %struct.CRYPTO_REF_COUNT, ptr }
%struct.CRYPTO_REF_COUNT = type { i32 }
%struct.evp_rand_st = type { ptr, i32, ptr, ptr, %struct.CRYPTO_REF_COUNT, ptr, ptr, ptr, ptr, ptr, ptr, ptr, ptr, ptr, ptr, ptr, ptr, ptr, ptr, ptr, ptr, ptr, ptr, ptr, ptr }

; Function Attrs: nounwind uwtable
define internal void @evp_rand_unlock(ptr noundef %0) #0 {
  %2 = alloca ptr, align 8
  store ptr %0, ptr %2, align 8, !tbaa !3
  %3 = load ptr, ptr %2, align 8, !tbaa !3
  %4 = getelementptr inbounds nuw %struct.evp_rand_ctx_st, ptr %3, i32 0, i32 0
  %5 = load ptr, ptr %4, align 8, !tbaa !8
  %6 = getelementptr inbounds nuw %struct.evp_rand_st, ptr %5, i32 0, i32 15
  %7 = load ptr, ptr %6, align 8, !tbaa !45
  %8 = icmp ne ptr %7, null
  br i1 %8, label %9, label %18

9:                                                ; preds = %1
  %10 = load ptr, ptr %2, align 8, !tbaa !3
  %11 = getelementptr inbounds nuw %struct.evp_rand_ctx_st, ptr %10, i32 0, i32 0
  %12 = load ptr, ptr %11, align 8, !tbaa !8
  %13 = getelementptr inbounds nuw %struct.evp_rand_st, ptr %12, i32 0, i32 15
  %14 = load ptr, ptr %13, align 8, !tbaa !45
  %15 = load ptr, ptr %2, align 8, !tbaa !3
  %16 = getelementptr inbounds nuw %struct.evp_rand_ctx_st, ptr %15, i32 0, i32 1
  %17 = load ptr, ptr %16, align 8, !tbaa !18
  call void %14(ptr noundef %17)
  br label %18

18:                                               ; preds = %9, %1
  ret void
}

; Function Attrs: nounwind uwtable
define internal i64 @evp_rand_get_seed_locked(ptr noundef %0, ptr noundef %1, i32 noundef %2, i64 noundef %3, i64 noundef %4, i32 noundef %5, ptr noundef %6, i64 noundef %7) #0 {
  %9 = alloca i64, align 8
  %10 = alloca ptr, align 8
  %11 = alloca ptr, align 8
  %12 = alloca i32, align 4
  %13 = alloca i64, align 8
  %14 = alloca i64, align 8
  %15 = alloca i32, align 4
  %16 = alloca ptr, align 8
  %17 = alloca i64, align 8
  store ptr %0, ptr %10, align 8, !tbaa !3
  store ptr %1, ptr %11, align 8, !tbaa !69
  store i32 %2, ptr %12, align 4, !tbaa !22
  store i64 %3, ptr %13, align 8, !tbaa !65
  store i64 %4, ptr %14, align 8, !tbaa !65
  store i32 %5, ptr %15, align 4, !tbaa !22
  store ptr %6, ptr %16, align 8, !tbaa !21
  store i64 %7, ptr %17, align 8, !tbaa !65
  %18 = load ptr, ptr %10, align 8, !tbaa !3
  %19 = getelementptr inbounds nuw %struct.evp_rand_ctx_st, ptr %18, i32 0, i32 0
  %20 = load ptr, ptr %19, align 8, !tbaa !8
  %21 = getelementptr inbounds nuw %struct.evp_rand_st, ptr %20, i32 0, i32 23
  %22 = load ptr, ptr %21, align 8, !tbaa !53
  %23 = icmp ne ptr %22, null
  br i1 %23, label %24, label %41

24:                                               ; preds = %8
  %25 = load ptr, ptr %10, align 8, !tbaa !3
  %26 = getelementptr inbounds nuw %struct.evp_rand_ctx_st, ptr %25, i32 0, i32 0
  %27 = load ptr, ptr %26, align 8, !tbaa !8
  %28 = getelementptr inbounds nuw %struct.evp_rand_st, ptr %27, i32 0, i32 23
  %29 = load ptr, ptr %28, align 8, !tbaa !53
  %30 = load ptr, ptr %10, align 8, !tbaa !3
  %31 = getelementptr inbounds nuw %struct.evp_rand_ctx_st, ptr %30, i32 0, i32 1
  %32 = load ptr, ptr %31, align 8, !tbaa !18
  %33 = load ptr, ptr %11, align 8, !tbaa !69
  %34 = load i32, ptr %12, align 4, !tbaa !22
  %35 = load i64, ptr %13, align 8, !tbaa !65
  %36 = load i64, ptr %14, align 8, !tbaa !65
  %37 = load i32, ptr %15, align 4, !tbaa !22
  %38 = load ptr, ptr %16, align 8, !tbaa !21
  %39 = load i64, ptr %17, align 8, !tbaa !65
  %40 = call i64 %29(ptr noundef %32, ptr noundef %33, i32 noundef %34, i64 noundef %35, i64 noundef %36, i32 noundef %37, ptr noundef %38, i64 noundef %39)
  store i64 %40, ptr %9, align 8
  br label %42

41:                                               ; preds = %8
  store i64 0, ptr %9, align 8
  br label %42

42:                                               ; preds = %41, %24
  %43 = load i64, ptr %9, align 8
  ret i64 %43
}

; Function Attrs: nounwind uwtable
define internal i32 @evp_rand_lock(ptr noundef %0) #0 {
  %2 = alloca i32, align 4
  %3 = alloca ptr, align 8
  store ptr %0, ptr %3, align 8, !tbaa !3
  %4 = load ptr, ptr %3, align 8, !tbaa !3
  %5 = getelementptr inbounds nuw %struct.evp_rand_ctx_st, ptr %4, i32 0, i32 0
  %6 = load ptr, ptr %5, align 8, !tbaa !8
  %7 = getelementptr inbounds nuw %struct.evp_rand_st, ptr %6, i32 0, i32 14
  %8 = load ptr, ptr %7, align 8, !tbaa !44
  %9 = icmp ne ptr %8, null
  br i1 %9, label %10, label %20

10:                                               ; preds = %1
  %11 = load ptr, ptr %3, align 8, !tbaa !3
  %12 = getelementptr inbounds nuw %struct.evp_rand_ctx_st, ptr %11, i32 0, i32 0
  %13 = load ptr, ptr %12, align 8, !tbaa !8
  %14 = getelementptr inbounds nuw %struct.evp_rand_st, ptr %13, i32 0, i32 14
  %15 = load ptr, ptr %14, align 8, !tbaa !44
  %16 = load ptr, ptr %3, align 8, !tbaa !3
  %17 = getelementptr inbounds nuw %struct.evp_rand_ctx_st, ptr %16, i32 0, i32 1
  %18 = load ptr, ptr %17, align 8, !tbaa !18
  %19 = call i32 %15(ptr noundef %18)
  store i32 %19, ptr %2, align 4
  br label %21

20:                                               ; preds = %1
  store i32 1, ptr %2, align 4
  br label %21

21:                                               ; preds = %20, %10
  %22 = load i32, ptr %2, align 4
  ret i32 %22
}

; Function Attrs: nounwind uwtable
define i64 @evp_rand_get_seed(ptr noundef %0, ptr noundef %1, i32 noundef %2, i64 noundef %3, i64 noundef %4, i32 noundef %5, ptr noundef %6, i64 noundef %7) #0 {
  %9 = alloca i64, align 8
  %10 = alloca ptr, align 8
  %11 = alloca ptr, align 8
  %12 = alloca i32, align 4
  %13 = alloca i64, align 8
  %14 = alloca i64, align 8
  %15 = alloca i32, align 4
  %16 = alloca ptr, align 8
  %17 = alloca i64, align 8
  %18 = alloca i32, align 4
  %19 = alloca i32, align 4
  store ptr %0, ptr %10, align 8, !tbaa !3
  store ptr %1, ptr %11, align 8, !tbaa !69
  store i32 %2, ptr %12, align 4, !tbaa !22
  store i64 %3, ptr %13, align 8, !tbaa !65
  store i64 %4, ptr %14, align 8, !tbaa !65
  store i32 %5, ptr %15, align 4, !tbaa !22
  store ptr %6, ptr %16, align 8, !tbaa !21
  store i64 %7, ptr %17, align 8, !tbaa !65
  call void @llvm.lifetime.start.p0(i64 4, ptr %18) #6
  %20 = load ptr, ptr %10, align 8, !tbaa !3
  %21 = call i32 @evp_rand_lock(ptr noundef %20)
  %22 = icmp ne i32 %21, 0
  br i1 %22, label %24, label %23

23:                                               ; preds = %8
  store i64 0, ptr %9, align 8
  store i32 1, ptr %19, align 4
  br label %38

24:                                               ; preds = %8
  %25 = load ptr, ptr %10, align 8, !tbaa !3
  %26 = load ptr, ptr %11, align 8, !tbaa !69
  %27 = load i32, ptr %12, align 4, !tbaa !22
  %28 = load i64, ptr %13, align 8, !tbaa !65
  %29 = load i64, ptr %14, align 8, !tbaa !65
  %30 = load i32, ptr %15, align 4, !tbaa !22
  %31 = load ptr, ptr %16, align 8, !tbaa !21
  %32 = load i64, ptr %17, align 8, !tbaa !65
  %33 = call i64 @evp_rand_get_seed_locked(ptr noundef %25, ptr noundef %26, i32 noundef %27, i64 noundef %28, i64 noundef %29, i32 noundef %30, ptr noundef %31, i64 noundef %32)
  %34 = trunc i64 %33 to i32
  store i32 %34, ptr %18, align 4, !tbaa !22
  %35 = load ptr, ptr %10, align 8, !tbaa !3
  call void @evp_rand_unlock(ptr noundef %35)
  %36 = load i32, ptr %18, align 4, !tbaa !22
  %37 = sext i32 %36 to i64
  store i64 %37, ptr %9, align 8
  store i32 1, ptr %19, align 4
  br label %38

38:                                               ; preds = %24, %23
  call void @llvm.lifetime.end.p0(i64 4, ptr %18) #6
  %39 = load i64, ptr %9, align 8
  ret i64 %39
}