; Function Attrs: nounwind uwtable
define range(i64 -2147483648, 2147483648) i64 @evp_rand_get_seed(ptr noundef readonly captures(none) %0, ptr noundef %1, i32 noundef %2, i64 noundef %3, i64 noundef %4, i32 noundef %5, ptr noundef %6, i64 noundef %7) local_unnamed_addr #0 {
  %9 = load ptr, ptr %0, align 8, !tbaa !3
  %10 = getelementptr inbounds nuw i8, ptr %9, i64 112
  %11 = load ptr, ptr %10, align 8, !tbaa !37
  %.not.i = icmp eq ptr %11, null
  br i1 %.not.i, label %evp_rand_lock.exit.thread, label %evp_rand_lock.exit

evp_rand_lock.exit:                               ; preds = %8
  %12 = getelementptr inbounds nuw i8, ptr %0, i64 8
  %13 = load ptr, ptr %12, align 8, !tbaa !17
  %14 = tail call i32 %11(ptr noundef %13) #8
  %.not = icmp eq i32 %14, 0
  br i1 %.not, label %evp_rand_unlock.exit, label %evp_rand_lock.exit.evp_rand_lock.exit.thread_crit_edge

evp_rand_lock.exit.evp_rand_lock.exit.thread_crit_edge: ; preds = %evp_rand_lock.exit
  %.pre = load ptr, ptr %0, align 8, !tbaa !3
  br label %evp_rand_lock.exit.thread

evp_rand_lock.exit.thread:                        ; preds = %evp_rand_lock.exit.evp_rand_lock.exit.thread_crit_edge, %8
  %15 = phi ptr [ %.pre, %evp_rand_lock.exit.evp_rand_lock.exit.thread_crit_edge ], [ %9, %8 ]
  %16 = getelementptr inbounds nuw i8, ptr %15, i64 184
  %17 = load ptr, ptr %16, align 8, !tbaa !46
  %.not.i11 = icmp eq ptr %17, null
  br i1 %.not.i11, label %evp_rand_get_seed_locked.exit, label %18

18:                                               ; preds = %evp_rand_lock.exit.thread
  %19 = getelementptr inbounds nuw i8, ptr %0, i64 8
  %20 = load ptr, ptr %19, align 8, !tbaa !17
  %21 = tail call i64 %17(ptr noundef %20, ptr noundef %1, i32 noundef %2, i64 noundef %3, i64 noundef %4, i32 noundef %5, ptr noundef %6, i64 noundef %7) #8
  %22 = shl i64 %21, 32
  %23 = ashr exact i64 %22, 32
  %.pre16 = load ptr, ptr %0, align 8, !tbaa !3
  br label %evp_rand_get_seed_locked.exit

evp_rand_get_seed_locked.exit:                    ; preds = %evp_rand_lock.exit.thread, %18
  %24 = phi ptr [ %.pre16, %18 ], [ %15, %evp_rand_lock.exit.thread ]
  %.0.i12 = phi i64 [ %23, %18 ], [ 0, %evp_rand_lock.exit.thread ]
  %25 = getelementptr inbounds nuw i8, ptr %24, i64 120
  %26 = load ptr, ptr %25, align 8, !tbaa !38
  %.not.i13 = icmp eq ptr %26, null
  br i1 %.not.i13, label %evp_rand_unlock.exit, label %27

27:                                               ; preds = %evp_rand_get_seed_locked.exit
  %28 = getelementptr inbounds nuw i8, ptr %0, i64 8
  %29 = load ptr, ptr %28, align 8, !tbaa !17
  tail call void %26(ptr noundef %29) #8
  br label %evp_rand_unlock.exit

evp_rand_unlock.exit:                             ; preds = %27, %evp_rand_get_seed_locked.exit, %evp_rand_lock.exit
  %.0 = phi i64 [ 0, %evp_rand_lock.exit ], [ %.0.i12, %evp_rand_get_seed_locked.exit ], [ %.0.i12, %27 ]
  ret i64 %.0
}